; Function Attrs: nounwind uwtable
define i64 @zend_spprintf(ptr noundef writeonly %0, i64 noundef %1, ptr noundef %2, ...) local_unnamed_addr #0 {
  %4 = alloca %struct.smart_string, align 8
  %5 = alloca [1 x %struct.__va_list_tag], align 16
  call void @llvm.va_start(ptr nonnull %5)
  call void @llvm.lifetime.start.p0(i64 24, ptr nonnull %4)
  call void @llvm.memset.p0.i64(ptr noundef nonnull align 8 dereferenceable(24) %4, i8 0, i64 24, i1 false)
  %.not.i = icmp eq ptr %0, null
  br i1 %.not.i, label %zend_vspprintf.exit, label %6

6:                                                ; preds = %3
  %7 = load ptr, ptr @zend_printf_to_smart_string, align 8
  call void %7(ptr noundef nonnull %4, ptr noundef %2, ptr noundef nonnull %5) #30
  %.not15.i = icmp eq i64 %1, 0
  br i1 %.not15.i, label %13, label %8

8:                                                ; preds = %6
  %9 = getelementptr inbounds i8, ptr %4, i64 8
  %10 = load i64, ptr %9, align 8
  %11 = icmp ugt i64 %10, %1
  br i1 %11, label %12, label %13

12:                                               ; preds = %8
  store i64 %1, ptr %9, align 8
  br label %13

13:                                               ; preds = %12, %8, %6
  %14 = load ptr, ptr %4, align 8
  %.not16.i = icmp eq ptr %14, null
  br i1 %.not16.i, label %.thread.i, label %15

15:                                               ; preds = %13
  %16 = getelementptr inbounds i8, ptr %4, i64 8
  %17 = load i64, ptr %16, align 8
  %18 = getelementptr inbounds i8, ptr %14, i64 %17
  store i8 0, ptr %18, align 1
  %.pr.i = load ptr, ptr %4, align 8
  %.not17.i = icmp eq ptr %.pr.i, null
  br i1 %.not17.i, label %.thread.i, label %19

19:                                               ; preds = %15
  store ptr %.pr.i, ptr %0, align 8
  %20 = load i64, ptr %16, align 8
  br label %zend_vspprintf.exit

.thread.i:                                        ; preds = %15, %13
  %21 = call noalias ptr @_estrndup(ptr noundef nonnull @.str, i64 noundef 0) #30
  store ptr %21, ptr %0, align 8
  br label %zend_vspprintf.exit

zend_vspprintf.exit:                              ; preds = %3, %19, %.thread.i
  %.0.i = phi i64 [ %20, %19 ], [ 0, %.thread.i ], [ 0, %3 ]
  call void @llvm.lifetime.end.p0(i64 24, ptr nonnull %4)
  call void @llvm.va_end(ptr nonnull %5)
  ret i64 %.0.i
}